target datalayout = "e-m:e-p270:32:32-p271:32:32-p272:64:64-i64:64-i128:128-f80:128-n8:16:32:64-S128"
target triple = "x86_64-pc-linux-gnu"

%struct.Gia_Man_t_ = type { ptr, ptr, i32, i32, i32, i32, ptr, ptr, i32, i32, i32, ptr, ptr, %struct.Vec_Int_t_, %struct.Vec_Int_t_, i32, i32, i32, %struct.Vec_Int_t_, ptr, ptr, ptr, i32, i32, i32, i32, ptr, ptr, ptr, ptr, ptr, i32, i32, ptr, i32, ptr, ptr, ptr, ptr, ptr, ptr, ptr, ptr, ptr, ptr, ptr, ptr, ptr, ptr, ptr, ptr, ptr, ptr, %struct.Vec_Int_t_, %struct.Vec_Int_t_, ptr, ptr, ptr, ptr, ptr, ptr, ptr, ptr, ptr, ptr, ptr, ptr, ptr, ptr, ptr, ptr, ptr, ptr, ptr, ptr, ptr, i32, float, float, ptr, ptr, i32, ptr, ptr, ptr, ptr, ptr, ptr, ptr, ptr, ptr, ptr, ptr, ptr, ptr, ptr, ptr, i64, i64, ptr, ptr, i32, i32, i32, i32, i32, i32, i32, i32, i32, i32, i32, i32, ptr, ptr, ptr, ptr, ptr, ptr, ptr, ptr, i32, i32, i32, ptr, i32, i32, ptr, ptr, ptr, ptr, ptr, ptr, i32, i32, ptr, %struct.Vec_Int_t_, %struct.Vec_Int_t_, %struct.Vec_Int_t_, ptr, ptr, ptr, i32, i32, i32, i32, ptr, ptr, ptr, ptr, ptr }
%struct.Vec_Int_t_ = type { i32, i32, ptr }

; Function Attrs: inlinehint nounwind uwtable
define internal ptr @Vec_IntEntryP(ptr noundef %0, i32 noundef %1) #3 {
  %3 = alloca ptr, align 8
  %4 = alloca i32, align 4
  store ptr %0, ptr %3, align 8, !tbaa !15
  store i32 %1, ptr %4, align 4, !tbaa !17
  %5 = load ptr, ptr %3, align 8, !tbaa !15
  %6 = getelementptr inbounds nuw %struct.Vec_Int_t_, ptr %5, i32 0, i32 2
  %7 = load ptr, ptr %6, align 8, !tbaa !42
  %8 = load i32, ptr %4, align 4, !tbaa !17
  %9 = sext i32 %8 to i64
  %10 = getelementptr inbounds i32, ptr %7, i64 %9
  ret ptr %10
}

; Function Attrs: inlinehint nounwind uwtable
define internal i32 @Vec_IntEntry(ptr noundef %0, i32 noundef %1) #3 {
  %3 = alloca ptr, align 8
  %4 = alloca i32, align 4
  store ptr %0, ptr %3, align 8, !tbaa !15
  store i32 %1, ptr %4, align 4, !tbaa !17
  %5 = load ptr, ptr %3, align 8, !tbaa !15
  %6 = getelementptr inbounds nuw %struct.Vec_Int_t_, ptr %5, i32 0, i32 2
  %7 = load ptr, ptr %6, align 8, !tbaa !42
  %8 = load i32, ptr %4, align 4, !tbaa !17
  %9 = sext i32 %8 to i64
  %10 = getelementptr inbounds i32, ptr %7, i64 %9
  %11 = load i32, ptr %10, align 4, !tbaa !17
  ret i32 %11
}

; Function Attrs: inlinehint nounwind uwtable
define internal void @Gia_ObjSetTravIdCurrentId(ptr noundef %0, i32 noundef %1) #3 {
  %3 = alloca ptr, align 8
  %4 = alloca i32, align 4
  store ptr %0, ptr %3, align 8, !tbaa !3
  store i32 %1, ptr %4, align 4, !tbaa !17
  %5 = load ptr, ptr %3, align 8, !tbaa !3
  %6 = getelementptr inbounds nuw %struct.Gia_Man_t_, ptr %5, i32 0, i32 24
  %7 = load i32, ptr %6, align 8, !tbaa !49
  %8 = load ptr, ptr %3, align 8, !tbaa !3
  %9 = getelementptr inbounds nuw %struct.Gia_Man_t_, ptr %8, i32 0, i32 80
  %10 = load ptr, ptr %9, align 8, !tbaa !48
  %11 = load i32, ptr %4, align 4, !tbaa !17
  %12 = sext i32 %11 to i64
  %13 = getelementptr inbounds i32, ptr %10, i64 %12
  store i32 %7, ptr %13, align 4, !tbaa !17
  ret void
}

; Function Attrs: inlinehint nounwind uwtable
define internal i32 @Gia_ObjIsTravIdCurrentId(ptr noundef %0, i32 noundef %1) #3 {
  %3 = alloca ptr, align 8
  %4 = alloca i32, align 4
  store ptr %0, ptr %3, align 8, !tbaa !3
  store i32 %1, ptr %4, align 4, !tbaa !17
  %5 = load ptr, ptr %3, align 8, !tbaa !3
  %6 = getelementptr inbounds nuw %struct.Gia_Man_t_, ptr %5, i32 0, i32 80
  %7 = load ptr, ptr %6, align 8, !tbaa !48
  %8 = load i32, ptr %4, align 4, !tbaa !17
  %9 = sext i32 %8 to i64
  %10 = getelementptr inbounds i32, ptr %7, i64 %9
  %11 = load i32, ptr %10, align 4, !tbaa !17
  %12 = load ptr, ptr %3, align 8, !tbaa !3
  %13 = getelementptr inbounds nuw %struct.Gia_Man_t_, ptr %12, i32 0, i32 24
  %14 = load i32, ptr %13, align 8, !tbaa !49
  %15 = icmp eq i32 %11, %14
  %16 = zext i1 %15 to i32
  ret i32 %16
}

; Function Attrs: inlinehint nounwind uwtable
define internal ptr @Gia_ObjLutFanins(ptr noundef %0, i32 noundef %1) #3 {
  %3 = alloca ptr, align 8
  %4 = alloca i32, align 4
  store ptr %0, ptr %3, align 8, !tbaa !3
  store i32 %1, ptr %4, align 4, !tbaa !17
  %5 = load ptr, ptr %3, align 8, !tbaa !3
  %6 = getelementptr inbounds nuw %struct.Gia_Man_t_, ptr %5, i32 0, i32 37
  %7 = load ptr, ptr %6, align 8, !tbaa !47
  %8 = load ptr, ptr %3, align 8, !tbaa !3
  %9 = getelementptr inbounds nuw %struct.Gia_Man_t_, ptr %8, i32 0, i32 37
  %10 = load ptr, ptr %9, align 8, !tbaa !47
  %11 = load i32, ptr %4, align 4, !tbaa !17
  %12 = call i32 @Vec_IntEntry(ptr noundef %10, i32 noundef %11)
  %13 = call ptr @Vec_IntEntryP(ptr noundef %7, i32 noundef %12)
  %14 = getelementptr inbounds i32, ptr %13, i64 1
  ret ptr %14
}

; Function Attrs: inlinehint nounwind uwtable
define internal i32 @Gia_ObjLutSize(ptr noundef %0, i32 noundef %1) #3 {
  %3 = alloca ptr, align 8
  %4 = alloca i32, align 4
  store ptr %0, ptr %3, align 8, !tbaa !3
  store i32 %1, ptr %4, align 4, !tbaa !17
  %5 = load ptr, ptr %3, align 8, !tbaa !3
  %6 = getelementptr inbounds nuw %struct.Gia_Man_t_, ptr %5, i32 0, i32 37
  %7 = load ptr, ptr %6, align 8, !tbaa !47
  %8 = load ptr, ptr %3, align 8, !tbaa !3
  %9 = getelementptr inbounds nuw %struct.Gia_Man_t_, ptr %8, i32 0, i32 37
  %10 = load ptr, ptr %9, align 8, !tbaa !47
  %11 = load i32, ptr %4, align 4, !tbaa !17
  %12 = call i32 @Vec_IntEntry(ptr noundef %10, i32 noundef %11)
  %13 = call i32 @Vec_IntEntry(ptr noundef %7, i32 noundef %12)
  ret i32 %13
}

; Function Attrs: nounwind uwtable
define i32 @Gia_IffObjCount(ptr noundef %0, i32 noundef %1, i32 noundef %2, i32 noundef %3) #0 {
  %5 = alloca ptr, align 8
  %6 = alloca i32, align 4
  %7 = alloca i32, align 4
  %8 = alloca i32, align 4
  %9 = alloca i32, align 4
  %10 = alloca i32, align 4
  %11 = alloca i32, align 4
  store ptr %0, ptr %5, align 8, !tbaa !3
  store i32 %1, ptr %6, align 4, !tbaa !17
  store i32 %2, ptr %7, align 4, !tbaa !17
  store i32 %3, ptr %8, align 4, !tbaa !17
  call void @llvm.lifetime.start.p0(i64 4, ptr %9) #9
  call void @llvm.lifetime.start.p0(i64 4, ptr %10) #9
  call void @llvm.lifetime.start.p0(i64 4, ptr %11) #9
  store i32 0, ptr %11, align 4, !tbaa !17
  %12 = load ptr, ptr %5, align 8, !tbaa !3
  call void @Gia_ManIncrementTravId(ptr noundef %12)
  store i32 0, ptr %9, align 4, !tbaa !17
  br label %13

13:                                               ; preds = %49, %4
  %14 = load i32, ptr %9, align 4, !tbaa !17
  %15 = load ptr, ptr %5, align 8, !tbaa !3
  %16 = load i32, ptr %6, align 4, !tbaa !17
  %17 = call i32 @Gia_ObjLutSize(ptr noundef %15, i32 noundef %16)
  %18 = icmp slt i32 %14, %17
  br i1 %18, label %19, label %27

19:                                               ; preds = %13
  %20 = load ptr, ptr %5, align 8, !tbaa !3
  %21 = load i32, ptr %6, align 4, !tbaa !17
  %22 = call ptr @Gia_ObjLutFanins(ptr noundef %20, i32 noundef %21)
  %23 = load i32, ptr %9, align 4, !tbaa !17
  %24 = sext i32 %23 to i64
  %25 = getelementptr inbounds i32, ptr %22, i64 %24
  %26 = load i32, ptr %25, align 4, !tbaa !17
  store i32 %26, ptr %10, align 4, !tbaa !17
  br label %27

27:                                               ; preds = %19, %13
  %28 = phi i1 [ false, %13 ], [ true, %19 ]
  br i1 %28, label %29, label %52

29:                                               ; preds = %27
  %30 = load i32, ptr %10, align 4, !tbaa !17
  %31 = load i32, ptr %7, align 4, !tbaa !17
  %32 = icmp eq i32 %30, %31
  br i1 %32, label %37, label %33

33:                                               ; preds = %29
  %34 = load i32, ptr %10, align 4, !tbaa !17
  %35 = load i32, ptr %8, align 4, !tbaa !17
  %36 = icmp eq i32 %34, %35
  br i1 %36, label %37, label %38

37:                                               ; preds = %33, %29
  br label %49

38:                                               ; preds = %33
  %39 = load ptr, ptr %5, align 8, !tbaa !3
  %40 = load i32, ptr %10, align 4, !tbaa !17
  %41 = call i32 @Gia_ObjIsTravIdCurrentId(ptr noundef %39, i32 noundef %40)
  %42 = icmp ne i32 %41, 0
  br i1 %42, label %43, label %44

43:                                               ; preds = %38
  br label %49

44:                                               ; preds = %38
  %45 = load ptr, ptr %5, align 8, !tbaa !3
  %46 = load i32, ptr %10, align 4, !tbaa !17
  call void @Gia_ObjSetTravIdCurrentId(ptr noundef %45, i32 noundef %46)
  %47 = load i32, ptr %11, align 4, !tbaa !17
  %48 = add nsw i32 %47, 1
  store i32 %48, ptr %11, align 4, !tbaa !17
  br label %49

49:                                               ; preds = %44, %43, %37
  %50 = load i32, ptr %9, align 4, !tbaa !17
  %51 = add nsw i32 %50, 1
  store i32 %51, ptr %9, align 4, !tbaa !17
  br label %13, !llvm.loop !43

52:                                               ; preds = %27
  %53 = load i32, ptr %7, align 4, !tbaa !17
  %54 = icmp sge i32 %53, 0
  br i1 %54, label %55, label %92

55:                                               ; preds = %52
  store i32 0, ptr %9, align 4, !tbaa !17
  br label %56

56:                                               ; preds = %88, %55
  %57 = load i32, ptr %9, align 4, !tbaa !17
  %58 = load ptr, ptr %5, align 8, !tbaa !3
  %59 = load i32, ptr %7, align 4, !tbaa !17
  %60 = call i32 @Gia_ObjLutSize(ptr noundef %58, i32 noundef %59)
  %61 = icmp slt i32 %57, %60
  br i1 %61, label %62, label %70

62:                                               ; preds = %56
  %63 = load ptr, ptr %5, align 8, !tbaa !3
  %64 = load i32, ptr %7, align 4, !tbaa !17
  %65 = call ptr @Gia_ObjLutFanins(ptr noundef %63, i32 noundef %64)
  %66 = load i32, ptr %9, align 4, !tbaa !17
  %67 = sext i32 %66 to i64
  %68 = getelementptr inbounds i32, ptr %65, i64 %67
  %69 = load i32, ptr %68, align 4, !tbaa !17
  store i32 %69, ptr %10, align 4, !tbaa !17
  br label %70

70:                                               ; preds = %62, %56
  %71 = phi i1 [ false, %56 ], [ true, %62 ]
  br i1 %71, label %72, label %91

72:                                               ; preds = %70
  %73 = load i32, ptr %10, align 4, !tbaa !17
  %74 = load i32, ptr %8, align 4, !tbaa !17
  %75 = icmp eq i32 %73, %74
  br i1 %75, label %76, label %77

76:                                               ; preds = %72
  br label %88

77:                                               ; preds = %72
  %78 = load ptr, ptr %5, align 8, !tbaa !3
  %79 = load i32, ptr %10, align 4, !tbaa !17
  %80 = call i32 @Gia_ObjIsTravIdCurrentId(ptr noundef %78, i32 noundef %79)
  %81 = icmp ne i32 %80, 0
  br i1 %81, label %82, label %83

82:                                               ; preds = %77
  br label %88

83:                                               ; preds = %77
  %84 = load ptr, ptr %5, align 8, !tbaa !3
  %85 = load i32, ptr %10, align 4, !tbaa !17
  call void @Gia_ObjSetTravIdCurrentId(ptr noundef %84, i32 noundef %85)
  %86 = load i32, ptr %11, align 4, !tbaa !17
  %87 = add nsw i32 %86, 1
  store i32 %87, ptr %11, align 4, !tbaa !17
  br label %88

88:                                               ; preds = %83, %82, %76
  %89 = load i32, ptr %9, align 4, !tbaa !17
  %90 = add nsw i32 %89, 1
  store i32 %90, ptr %9, align 4, !tbaa !17
  br label %56, !llvm.loop !45

91:                                               ; preds = %70
  br label %92

92:                                               ; preds = %91, %52
  %93 = load i32, ptr %8, align 4, !tbaa !17
  %94 = icmp sge i32 %93, 0
  br i1 %94, label %95, label %132

95:                                               ; preds = %92
  store i32 0, ptr %9, align 4, !tbaa !17
  br label %96

96:                                               ; preds = %128, %95
  %97 = load i32, ptr %9, align 4, !tbaa !17
  %98 = load ptr, ptr %5, align 8, !tbaa !3
  %99 = load i32, ptr %8, align 4, !tbaa !17
  %100 = call i32 @Gia_ObjLutSize(ptr noundef %98, i32 noundef %99)
  %101 = icmp slt i32 %97, %100
  br i1 %101, label %102, label %110

102:                                              ; preds = %96
  %103 = load ptr, ptr %5, align 8, !tbaa !3
  %104 = load i32, ptr %8, align 4, !tbaa !17
  %105 = call ptr @Gia_ObjLutFanins(ptr noundef %103, i32 noundef %104)
  %106 = load i32, ptr %9, align 4, !tbaa !17
  %107 = sext i32 %106 to i64
  %108 = getelementptr inbounds i32, ptr %105, i64 %107
  %109 = load i32, ptr %108, align 4, !tbaa !17
  store i32 %109, ptr %10, align 4, !tbaa !17
  br label %110

110:                                              ; preds = %102, %96
  %111 = phi i1 [ false, %96 ], [ true, %102 ]
  br i1 %111, label %112, label %131

112:                                              ; preds = %110
  %113 = load i32, ptr %10, align 4, !tbaa !17
  %114 = load i32, ptr %7, align 4, !tbaa !17
  %115 = icmp eq i32 %113, %114
  br i1 %115, label %116, label %117

116:                                              ; preds = %112
  br label %128

117:                                              ; preds = %112
  %118 = load ptr, ptr %5, align 8, !tbaa !3
  %119 = load i32, ptr %10, align 4, !tbaa !17
  %120 = call i32 @Gia_ObjIsTravIdCurrentId(ptr noundef %118, i32 noundef %119)
  %121 = icmp ne i32 %120, 0
  br i1 %121, label %122, label %123

122:                                              ; preds = %117
  br label %128

123:                                              ; preds = %117
  %124 = load ptr, ptr %5, align 8, !tbaa !3
  %125 = load i32, ptr %10, align 4, !tbaa !17
  call void @Gia_ObjSetTravIdCurrentId(ptr noundef %124, i32 noundef %125)
  %126 = load i32, ptr %11, align 4, !tbaa !17
  %127 = add nsw i32 %126, 1
  store i32 %127, ptr %11, align 4, !tbaa !17
  br label %128

128:                                              ; preds = %123, %122, %116
  %129 = load i32, ptr %9, align 4, !tbaa !17
  %130 = add nsw i32 %129, 1
  store i32 %130, ptr %9, align 4, !tbaa !17
  br label %96, !llvm.loop !46

131:                                              ; preds = %110
  br label %132

132:                                              ; preds = %131, %92
  %133 = load i32, ptr %11, align 4, !tbaa !17
  call void @llvm.lifetime.end.p0(i64 4, ptr %11) #9
  call void @llvm.lifetime.end.p0(i64 4, ptr %10) #9
  call void @llvm.lifetime.end.p0(i64 4, ptr %9) #9
  ret i32 %133
}