; Function Attrs: nounwind uwtable
define i32 @Gia_IffObjCount(ptr noundef %0, i32 noundef %1, i32 noundef %2, i32 noundef %3) local_unnamed_addr #5 {
  tail call void @Gia_ManIncrementTravId(ptr noundef %0) #15
  %5 = getelementptr i8, ptr %0, i64 264
  %.val = load ptr, ptr %5, align 8, !tbaa !40
  %6 = getelementptr i8, ptr %.val, i64 8
  %.val.val = load ptr, ptr %6, align 8, !tbaa !37
  %7 = sext i32 %1 to i64
  %8 = getelementptr inbounds i32, ptr %.val.val, i64 %7
  %9 = load i32, ptr %8, align 4, !tbaa !41
  %10 = sext i32 %9 to i64
  %11 = getelementptr inbounds i32, ptr %.val.val, i64 %10
  %12 = load i32, ptr %11, align 4, !tbaa !41
  %13 = icmp sgt i32 %12, 0
  br i1 %13, label %.lr.ph, label %.critedge

.lr.ph:                                           ; preds = %4
  %14 = getelementptr i8, ptr %0, i64 176
  %15 = getelementptr i8, ptr %0, i64 616
  %invariant.gep = getelementptr i8, ptr %.val.val, i64 4
  br label %16

16:                                               ; preds = %.lr.ph, %29
  %17 = phi i32 [ %9, %.lr.ph ], [ %30, %29 ]
  %indvars.iv = phi i64 [ 0, %.lr.ph ], [ %indvars.iv.next, %29 ]
  %18 = phi i64 [ %10, %.lr.ph ], [ %31, %29 ]
  %.082 = phi i32 [ 0, %.lr.ph ], [ %.1, %29 ]
  %gep = getelementptr i32, ptr %invariant.gep, i64 %18
  %19 = getelementptr inbounds nuw i32, ptr %gep, i64 %indvars.iv
  %20 = load i32, ptr %19, align 4, !tbaa !41
  %21 = icmp eq i32 %20, %2
  %22 = icmp eq i32 %20, %3
  %or.cond = or i1 %21, %22
  br i1 %or.cond, label %29, label %23

23:                                               ; preds = %16
  %.val66 = load i32, ptr %14, align 8, !tbaa !42
  %.val67 = load ptr, ptr %15, align 8, !tbaa !43
  %24 = sext i32 %20 to i64
  %25 = getelementptr inbounds i32, ptr %.val67, i64 %24
  %26 = load i32, ptr %25, align 4, !tbaa !41
  %.not79 = icmp eq i32 %26, %.val66
  br i1 %.not79, label %29, label %27

27:                                               ; preds = %23
  store i32 %.val66, ptr %25, align 4, !tbaa !41
  %28 = add nsw i32 %.082, 1
  %.pre = load i32, ptr %8, align 4, !tbaa !41
  br label %29

29:                                               ; preds = %23, %16, %27
  %30 = phi i32 [ %17, %16 ], [ %17, %23 ], [ %.pre, %27 ]
  %.1 = phi i32 [ %.082, %16 ], [ %.082, %23 ], [ %28, %27 ]
  %indvars.iv.next = add nuw nsw i64 %indvars.iv, 1
  %31 = sext i32 %30 to i64
  %32 = getelementptr inbounds i32, ptr %.val.val, i64 %31
  %33 = load i32, ptr %32, align 4, !tbaa !41
  %34 = sext i32 %33 to i64
  %35 = icmp slt i64 %indvars.iv.next, %34
  br i1 %35, label %16, label %.critedge, !llvm.loop !44

.critedge:                                        ; preds = %29, %4
  %.0.lcssa = phi i32 [ 0, %4 ], [ %.1, %29 ]
  %36 = icmp sgt i32 %2, -1
  br i1 %36, label %.preheader80, label %.critedge2

.preheader80:                                     ; preds = %.critedge
  %37 = zext nneg i32 %2 to i64
  %38 = getelementptr inbounds nuw i32, ptr %.val.val, i64 %37
  %39 = load i32, ptr %38, align 4, !tbaa !41
  %40 = sext i32 %39 to i64
  %41 = getelementptr inbounds i32, ptr %.val.val, i64 %40
  %42 = load i32, ptr %41, align 4, !tbaa !41
  %43 = icmp sgt i32 %42, 0
  br i1 %43, label %.lr.ph86, label %.critedge2

.lr.ph86:                                         ; preds = %.preheader80
  %44 = getelementptr i8, ptr %0, i64 176
  %45 = getelementptr i8, ptr %0, i64 616
  %invariant.gep101 = getelementptr i8, ptr %.val.val, i64 4
  br label %46

46:                                               ; preds = %.lr.ph86, %58
  %47 = phi i32 [ %39, %.lr.ph86 ], [ %59, %58 ]
  %indvars.iv93 = phi i64 [ 0, %.lr.ph86 ], [ %indvars.iv.next94, %58 ]
  %48 = phi i64 [ %40, %.lr.ph86 ], [ %60, %58 ]
  %.385 = phi i32 [ %.0.lcssa, %.lr.ph86 ], [ %.4, %58 ]
  %gep102 = getelementptr i32, ptr %invariant.gep101, i64 %48
  %49 = getelementptr inbounds nuw i32, ptr %gep102, i64 %indvars.iv93
  %50 = load i32, ptr %49, align 4, !tbaa !41
  %51 = icmp eq i32 %50, %3
  br i1 %51, label %58, label %52

52:                                               ; preds = %46
  %.val68 = load i32, ptr %44, align 8, !tbaa !42
  %.val69 = load ptr, ptr %45, align 8, !tbaa !43
  %53 = sext i32 %50 to i64
  %54 = getelementptr inbounds i32, ptr %.val69, i64 %53
  %55 = load i32, ptr %54, align 4, !tbaa !41
  %.not78 = icmp eq i32 %55, %.val68
  br i1 %.not78, label %58, label %56

56:                                               ; preds = %52
  store i32 %.val68, ptr %54, align 4, !tbaa !41
  %57 = add nsw i32 %.385, 1
  %.pre99 = load i32, ptr %38, align 4, !tbaa !41
  br label %58

58:                                               ; preds = %52, %46, %56
  %59 = phi i32 [ %47, %46 ], [ %47, %52 ], [ %.pre99, %56 ]
  %.4 = phi i32 [ %.385, %46 ], [ %.385, %52 ], [ %57, %56 ]
  %indvars.iv.next94 = add nuw nsw i64 %indvars.iv93, 1
  %60 = sext i32 %59 to i64
  %61 = getelementptr inbounds i32, ptr %.val.val, i64 %60
  %62 = load i32, ptr %61, align 4, !tbaa !41
  %63 = sext i32 %62 to i64
  %64 = icmp slt i64 %indvars.iv.next94, %63
  br i1 %64, label %46, label %.critedge2, !llvm.loop !46

.critedge2:                                       ; preds = %58, %.preheader80, %.critedge
  %.2 = phi i32 [ %.0.lcssa, %.critedge ], [ %.0.lcssa, %.preheader80 ], [ %.4, %58 ]
  %65 = icmp sgt i32 %3, -1
  br i1 %65, label %.preheader, label %.critedge4

.preheader:                                       ; preds = %.critedge2
  %66 = zext nneg i32 %3 to i64
  %67 = getelementptr inbounds nuw i32, ptr %.val.val, i64 %66
  %68 = load i32, ptr %67, align 4, !tbaa !41
  %69 = sext i32 %68 to i64
  %70 = getelementptr inbounds i32, ptr %.val.val, i64 %69
  %71 = load i32, ptr %70, align 4, !tbaa !41
  %72 = icmp sgt i32 %71, 0
  br i1 %72, label %.lr.ph90, label %.critedge4

.lr.ph90:                                         ; preds = %.preheader
  %73 = getelementptr i8, ptr %0, i64 176
  %74 = getelementptr i8, ptr %0, i64 616
  %invariant.gep103 = getelementptr i8, ptr %.val.val, i64 4
  br label %75

75:                                               ; preds = %.lr.ph90, %87
  %76 = phi i32 [ %68, %.lr.ph90 ], [ %88, %87 ]
  %indvars.iv96 = phi i64 [ 0, %.lr.ph90 ], [ %indvars.iv.next97, %87 ]
  %77 = phi i64 [ %69, %.lr.ph90 ], [ %89, %87 ]
  %.689 = phi i32 [ %.2, %.lr.ph90 ], [ %.7, %87 ]
  %gep104 = getelementptr i32, ptr %invariant.gep103, i64 %77
  %78 = getelementptr inbounds nuw i32, ptr %gep104, i64 %indvars.iv96
  %79 = load i32, ptr %78, align 4, !tbaa !41
  %80 = icmp eq i32 %79, %2
  br i1 %80, label %87, label %81

81:                                               ; preds = %75
  %.val70 = load i32, ptr %73, align 8, !tbaa !42
  %.val71 = load ptr, ptr %74, align 8, !tbaa !43
  %82 = sext i32 %79 to i64
  %83 = getelementptr inbounds i32, ptr %.val71, i64 %82
  %84 = load i32, ptr %83, align 4, !tbaa !41
  %.not = icmp eq i32 %84, %.val70
  br i1 %.not, label %87, label %85

85:                                               ; preds = %81
  store i32 %.val70, ptr %83, align 4, !tbaa !41
  %86 = add nsw i32 %.689, 1
  %.pre100 = load i32, ptr %67, align 4, !tbaa !41
  br label %87

87:                                               ; preds = %81, %75, %85
  %88 = phi i32 [ %76, %75 ], [ %76, %81 ], [ %.pre100, %85 ]
  %.7 = phi i32 [ %.689, %75 ], [ %.689, %81 ], [ %86, %85 ]
  %indvars.iv.next97 = add nuw nsw i64 %indvars.iv96, 1
  %89 = sext i32 %88 to i64
  %90 = getelementptr inbounds i32, ptr %.val.val, i64 %89
  %91 = load i32, ptr %90, align 4, !tbaa !41
  %92 = sext i32 %91 to i64
  %93 = icmp slt i64 %indvars.iv.next97, %92
  br i1 %93, label %75, label %.critedge4, !llvm.loop !47

.critedge4:                                       ; preds = %87, %.preheader, %.critedge2
  %.5 = phi i32 [ %.2, %.critedge2 ], [ %.2, %.preheader ], [ %.7, %87 ]
  ret i32 %.5
}